target datalayout = "e-m:e-p270:32:32-p271:32:32-p272:64:64-i64:64-i128:128-f80:128-n8:16:32:64-S128"
target triple = "x86_64-pc-linux-gnu"

%struct.VHeader_ = type { i32, i32, [0 x i8] }

; Function Attrs: nounwind uwtable
define dso_local ptr @llvm_func_type(ptr noundef %0, ptr noundef %1) #0 {
  %3 = alloca i32, align 4
  %4 = alloca ptr, align 8
  %5 = alloca ptr, align 8
  %6 = alloca ptr, align 8
  %7 = alloca ptr, align 8
  %8 = alloca ptr, align 8
  %9 = alloca ptr, align 8
  store ptr %0, ptr %6, align 8
  store ptr %1, ptr %7, align 8
  store ptr null, ptr %8, align 8
  %10 = load ptr, ptr %6, align 8
  %11 = load ptr, ptr %7, align 8
  %12 = call ptr @llvm_update_prototype_abi(ptr noundef %10, ptr noundef %11, ptr noundef %8)
  store ptr %12, ptr %9, align 8
  %13 = load ptr, ptr %9, align 8
  %14 = load ptr, ptr %8, align 8
  %15 = load ptr, ptr %8, align 8
  store ptr %15, ptr %4, align 8
  %16 = load ptr, ptr %4, align 8
  %17 = icmp ne ptr %16, null
  br i1 %17, label %19, label %18

18:                                               ; preds = %2
  store i32 0, ptr %3, align 4
  br label %24

19:                                               ; preds = %2
  %20 = load ptr, ptr %4, align 8
  store ptr %20, ptr %5, align 8
  %21 = load ptr, ptr %5, align 8
  %22 = getelementptr inbounds %struct.VHeader_, ptr %21, i64 -1
  %23 = load i32, ptr %22, align 4
  store i32 %23, ptr %3, align 4
  br label %24

24:                                               ; preds = %19, %18
  %25 = load i32, ptr %3, align 4
  %26 = load ptr, ptr %7, align 8
  %27 = load i16, ptr %26, align 8
  %28 = lshr i16 %27, 4
  %29 = and i16 %28, 1
  %30 = trunc i16 %29 to i1
  %31 = zext i1 %30 to i32
  %32 = call ptr @LLVMFunctionType(ptr noundef %13, ptr noundef %14, i32 noundef %25, i32 noundef %31)
  ret ptr %32
}