; Function Attrs: nounwind uwtable
define dso_local ptr @llvm_func_type(ptr noundef %0, ptr nocapture noundef readonly %1) local_unnamed_addr #0 {
  %3 = alloca ptr, align 8
  store ptr null, ptr %3, align 8
  %4 = call ptr @llvm_update_prototype_abi(ptr noundef %0, ptr noundef %1, ptr noundef nonnull %3)
  %5 = load ptr, ptr %3, align 8
  %.not = icmp eq ptr %5, null
  br i1 %.not, label %9, label %6

6:                                                ; preds = %2
  %7 = getelementptr inbounds i8, ptr %5, i64 -8
  %8 = load i32, ptr %7, align 4
  br label %9

9:                                                ; preds = %2, %6
  %.0 = phi i32 [ %8, %6 ], [ 0, %2 ]
  %10 = load i16, ptr %1, align 8
  %11 = lshr i16 %10, 4
  %.lobit = and i16 %11, 1
  %12 = zext nneg i16 %.lobit to i32
  %13 = call ptr @LLVMFunctionType(ptr noundef %4, ptr noundef %5, i32 noundef %.0, i32 noundef %12) #6
  ret ptr %13
}